target datalayout = "e-m:e-p270:32:32-p271:32:32-p272:64:64-i64:64-i128:128-f80:128-n8:16:32:64-S128"
target triple = "x86_64-pc-linux-gnu"

%class.HeapBlockClaimer = type { i64 }
%class.PSScavengeParallelObjectIterator = type { %class.ParallelObjectIteratorImpl, ptr, %class.HeapBlockClaimer }
%class.ParallelObjectIteratorImpl = type { ptr }

@_ZTV26ParallelObjectIteratorImpl = linkonce_odr hidden unnamed_addr constant { [5 x ptr] } { [5 x ptr] [ptr null, ptr null, ptr @_ZN26ParallelObjectIteratorImplD2Ev, ptr @_ZN26ParallelObjectIteratorImplD0Ev, ptr @__cxa_pure_virtual] }, comdat, align 8
@_ZN8Universe14_collectedHeapE = external global ptr, align 8

; Function Attrs: mustprogress nounwind uwtable
define linkonce_odr hidden noundef ptr @_ZN8Universe4heapEv() #1 comdat align 2 {
  %1 = load ptr, ptr @_ZN8Universe14_collectedHeapE, align 8
  ret ptr %1
}

; Function Attrs: mustprogress nounwind uwtable
define linkonce_odr hidden noundef ptr @_ZN13CollectedHeap10named_heapI20ParallelScavengeHeapEEPT_NS_4NameE(i32 noundef %0) #1 comdat align 2 {
  %2 = alloca i32, align 4
  %3 = alloca ptr, align 8
  store i32 %0, ptr %2, align 4
  %4 = call noundef ptr @_ZN8Universe4heapEv()
  store ptr %4, ptr %3, align 8
  %5 = load ptr, ptr %3, align 8
  ret ptr %5
}

; Function Attrs: mustprogress nounwind uwtable
define linkonce_odr hidden void @_ZN16HeapBlockClaimerC2Ev(ptr noundef nonnull align 8 dereferenceable(8) %0) unnamed_addr #1 comdat align 2 {
  %2 = alloca ptr, align 8
  store ptr %0, ptr %2, align 8
  %3 = load ptr, ptr %2, align 8
  %4 = getelementptr inbounds %class.HeapBlockClaimer, ptr %3, i32 0, i32 0
  store i64 0, ptr %4, align 8
  ret void
}

; Function Attrs: mustprogress nounwind uwtable
define linkonce_odr hidden noundef ptr @_ZN20ParallelScavengeHeap4heapEv() #1 comdat align 2 {
  %1 = call noundef ptr @_ZN13CollectedHeap10named_heapI20ParallelScavengeHeapEEPT_NS_4NameE(i32 noundef 2)
  ret ptr %1
}

; Function Attrs: mustprogress nounwind uwtable
define linkonce_odr hidden void @_ZN26ParallelObjectIteratorImplC2Ev(ptr noundef nonnull align 8 dereferenceable(8) %0) unnamed_addr #1 comdat align 2 {
  %2 = alloca ptr, align 8
  store ptr %0, ptr %2, align 8
  %3 = load ptr, ptr %2, align 8
  store ptr getelementptr inbounds inrange(-16, 24) ({ [5 x ptr] }, ptr @_ZTV26ParallelObjectIteratorImpl, i32 0, i32 0, i32 2), ptr %3, align 8
  ret void
}

; Function Attrs: mustprogress nounwind uwtable
define linkonce_odr hidden void @_ZN32PSScavengeParallelObjectIteratorC2Ev(ptr noundef nonnull align 8 dereferenceable(24) %0) unnamed_addr #1 comdat align 2 {
  %2 = alloca ptr, align 8
  store ptr %0, ptr %2, align 8
  %3 = load ptr, ptr %2, align 8
  call void @_ZN26ParallelObjectIteratorImplC2Ev(ptr noundef nonnull align 8 dereferenceable(8) %3) #9
  store ptr getelementptr inbounds inrange(-16, 24) ({ [5 x ptr] }, ptr @_ZTV32PSScavengeParallelObjectIterator, i32 0, i32 0, i32 2), ptr %3, align 8
  %4 = getelementptr inbounds %class.PSScavengeParallelObjectIterator, ptr %3, i32 0, i32 1
  %5 = call noundef ptr @_ZN20ParallelScavengeHeap4heapEv()
  store ptr %5, ptr %4, align 8
  %6 = getelementptr inbounds %class.PSScavengeParallelObjectIterator, ptr %3, i32 0, i32 2
  call void @_ZN16HeapBlockClaimerC2Ev(ptr noundef nonnull align 8 dereferenceable(8) %6)
  ret void
}

; Function Attrs: mustprogress nounwind uwtable
define hidden noundef ptr @_ZN20ParallelScavengeHeap24parallel_object_iteratorEj(ptr noundef nonnull align 8 dereferenceable(264) %0, i32 noundef %1) unnamed_addr #1 align 2 {
  %3 = alloca i64, align 8
  %4 = alloca i8, align 1
  %5 = alloca i64, align 8
  %6 = alloca ptr, align 8
  %7 = alloca i32, align 4
  store ptr %0, ptr %6, align 8
  store i32 %1, ptr %7, align 4
  store i64 24, ptr %5, align 8
  %8 = load i64, ptr %5, align 8
  store i64 %8, ptr %3, align 8
  store i8 5, ptr %4, align 1
  %9 = load i64, ptr %3, align 8
  %10 = load i8, ptr %4, align 1
  %11 = call noundef ptr @_Z12AllocateHeapm8MEMFLAGSN17AllocFailStrategy13AllocFailEnumE(i64 noundef %9, i8 noundef zeroext %10, i32 noundef 0) #9
  call void @_ZN32PSScavengeParallelObjectIteratorC2Ev(ptr noundef nonnull align 8 dereferenceable(24) %11)
  ret ptr %11
}