; Function Attrs: mustprogress nounwind uwtable
define hidden noundef ptr @_ZN20ParallelScavengeHeap24parallel_object_iteratorEj(ptr nocapture nonnull readnone align 8 %0, i32 %1) unnamed_addr #0 align 2 {
  %3 = tail call noundef ptr @_Z12AllocateHeapm8MEMFLAGSN17AllocFailStrategy13AllocFailEnumE(i64 noundef 24, i8 noundef zeroext 5, i32 noundef 0) #15
  store ptr getelementptr inbounds inrange(-16, 24) (i8, ptr @_ZTV32PSScavengeParallelObjectIterator, i64 16), ptr %3, align 8
  %4 = getelementptr inbounds i8, ptr %3, i64 8
  %5 = load ptr, ptr @_ZN8Universe14_collectedHeapE, align 8
  store ptr %5, ptr %4, align 8
  %6 = getelementptr inbounds i8, ptr %3, i64 16
  store i64 0, ptr %6, align 8
  ret ptr %3
}